; Function Attrs: nounwind uwtable
define internal ptr @bytes_check(ptr readnone captures(none) %0, ptr noundef readonly %1) #0 {
  %3 = icmp eq ptr %1, @_Py_NoneStruct
  %spec.store.select = select i1 %3, ptr null, ptr %1
  %4 = getelementptr i8, ptr %spec.store.select, i64 8
  %spec.store.select.val = load ptr, ptr %4, align 8, !tbaa !3
  %5 = tail call i64 @PyType_GetFlags(ptr noundef %spec.store.select.val) #4
  %6 = lshr i64 %5, 27
  %7 = and i64 %6, 1
  %8 = tail call ptr @PyLong_FromLong(i64 noundef %7) #4
  ret ptr %8
}